target datalayout = "e-m:e-p270:32:32-p271:32:32-p272:64:64-i64:64-i128:128-f80:128-n8:16:32:64-S128"
target triple = "x86_64-pc-linux-gnu"

; Function Attrs: nounwind uwtable
define hidden void @ScaleFilterCols64_C(ptr noundef %0, ptr noundef %1, i32 noundef %2, i32 noundef %3, i32 noundef %4) #0 {
  %6 = alloca ptr, align 8
  %7 = alloca ptr, align 8
  %8 = alloca i32, align 4
  %9 = alloca i32, align 4
  %10 = alloca i32, align 4
  %11 = alloca i64, align 8
  %12 = alloca i32, align 4
  %13 = alloca i64, align 8
  %14 = alloca i32, align 4
  %15 = alloca i32, align 4
  %16 = alloca i64, align 8
  %17 = alloca i32, align 4
  %18 = alloca i32, align 4
  store ptr %0, ptr %6, align 8
  store ptr %1, ptr %7, align 8
  store i32 %2, ptr %8, align 4
  store i32 %3, ptr %9, align 4
  store i32 %4, ptr %10, align 4
  %19 = load i32, ptr %9, align 4
  %20 = sext i32 %19 to i64
  store i64 %20, ptr %11, align 8
  store i32 0, ptr %12, align 4
  br label %21

21:                                               ; preds = %93, %5
  %22 = load i32, ptr %12, align 4
  %23 = load i32, ptr %8, align 4
  %24 = sub nsw i32 %23, 1
  %25 = icmp slt i32 %22, %24
  br i1 %25, label %26, label %96

26:                                               ; preds = %21
  %27 = load i64, ptr %11, align 8
  %28 = ashr i64 %27, 16
  store i64 %28, ptr %13, align 8
  %29 = load ptr, ptr %7, align 8
  %30 = load i64, ptr %13, align 8
  %31 = getelementptr inbounds i8, ptr %29, i64 %30
  %32 = load i8, ptr %31, align 1
  %33 = zext i8 %32 to i32
  store i32 %33, ptr %14, align 4
  %34 = load ptr, ptr %7, align 8
  %35 = load i64, ptr %13, align 8
  %36 = add nsw i64 %35, 1
  %37 = getelementptr inbounds i8, ptr %34, i64 %36
  %38 = load i8, ptr %37, align 1
  %39 = zext i8 %38 to i32
  store i32 %39, ptr %15, align 4
  %40 = load i32, ptr %14, align 4
  %41 = load i64, ptr %11, align 8
  %42 = and i64 %41, 65535
  %43 = ashr i64 %42, 9
  %44 = trunc i64 %43 to i32
  %45 = load i32, ptr %15, align 4
  %46 = load i32, ptr %14, align 4
  %47 = sub nsw i32 %45, %46
  %48 = mul nsw i32 %44, %47
  %49 = add nsw i32 %48, 64
  %50 = ashr i32 %49, 7
  %51 = add nsw i32 %40, %50
  %52 = trunc i32 %51 to i8
  %53 = load ptr, ptr %6, align 8
  %54 = getelementptr inbounds i8, ptr %53, i64 0
  store i8 %52, ptr %54, align 1
  %55 = load i32, ptr %10, align 4
  %56 = sext i32 %55 to i64
  %57 = load i64, ptr %11, align 8
  %58 = add nsw i64 %57, %56
  store i64 %58, ptr %11, align 8
  %59 = load i64, ptr %11, align 8
  %60 = ashr i64 %59, 16
  store i64 %60, ptr %13, align 8
  %61 = load ptr, ptr %7, align 8
  %62 = load i64, ptr %13, align 8
  %63 = getelementptr inbounds i8, ptr %61, i64 %62
  %64 = load i8, ptr %63, align 1
  %65 = zext i8 %64 to i32
  store i32 %65, ptr %14, align 4
  %66 = load ptr, ptr %7, align 8
  %67 = load i64, ptr %13, align 8
  %68 = add nsw i64 %67, 1
  %69 = getelementptr inbounds i8, ptr %66, i64 %68
  %70 = load i8, ptr %69, align 1
  %71 = zext i8 %70 to i32
  store i32 %71, ptr %15, align 4
  %72 = load i32, ptr %14, align 4
  %73 = load i64, ptr %11, align 8
  %74 = and i64 %73, 65535
  %75 = ashr i64 %74, 9
  %76 = trunc i64 %75 to i32
  %77 = load i32, ptr %15, align 4
  %78 = load i32, ptr %14, align 4
  %79 = sub nsw i32 %77, %78
  %80 = mul nsw i32 %76, %79
  %81 = add nsw i32 %80, 64
  %82 = ashr i32 %81, 7
  %83 = add nsw i32 %72, %82
  %84 = trunc i32 %83 to i8
  %85 = load ptr, ptr %6, align 8
  %86 = getelementptr inbounds i8, ptr %85, i64 1
  store i8 %84, ptr %86, align 1
  %87 = load i32, ptr %10, align 4
  %88 = sext i32 %87 to i64
  %89 = load i64, ptr %11, align 8
  %90 = add nsw i64 %89, %88
  store i64 %90, ptr %11, align 8
  %91 = load ptr, ptr %6, align 8
  %92 = getelementptr inbounds i8, ptr %91, i64 2
  store ptr %92, ptr %6, align 8
  br label %93

93:                                               ; preds = %26
  %94 = load i32, ptr %12, align 4
  %95 = add nsw i32 %94, 2
  store i32 %95, ptr %12, align 4
  br label %21, !llvm.loop !14

96:                                               ; preds = %21
  %97 = load i32, ptr %8, align 4
  %98 = and i32 %97, 1
  %99 = icmp ne i32 %98, 0
  br i1 %99, label %100, label %129

100:                                              ; preds = %96
  %101 = load i64, ptr %11, align 8
  %102 = ashr i64 %101, 16
  store i64 %102, ptr %16, align 8
  %103 = load ptr, ptr %7, align 8
  %104 = load i64, ptr %16, align 8
  %105 = getelementptr inbounds i8, ptr %103, i64 %104
  %106 = load i8, ptr %105, align 1
  %107 = zext i8 %106 to i32
  store i32 %107, ptr %17, align 4
  %108 = load ptr, ptr %7, align 8
  %109 = load i64, ptr %16, align 8
  %110 = add nsw i64 %109, 1
  %111 = getelementptr inbounds i8, ptr %108, i64 %110
  %112 = load i8, ptr %111, align 1
  %113 = zext i8 %112 to i32
  store i32 %113, ptr %18, align 4
  %114 = load i32, ptr %17, align 4
  %115 = load i64, ptr %11, align 8
  %116 = and i64 %115, 65535
  %117 = ashr i64 %116, 9
  %118 = trunc i64 %117 to i32
  %119 = load i32, ptr %18, align 4
  %120 = load i32, ptr %17, align 4
  %121 = sub nsw i32 %119, %120
  %122 = mul nsw i32 %118, %121
  %123 = add nsw i32 %122, 64
  %124 = ashr i32 %123, 7
  %125 = add nsw i32 %114, %124
  %126 = trunc i32 %125 to i8
  %127 = load ptr, ptr %6, align 8
  %128 = getelementptr inbounds i8, ptr %127, i64 0
  store i8 %126, ptr %128, align 1
  br label %129

129:                                              ; preds = %100, %96
  ret void
}