; Function Attrs: nofree norecurse nosync nounwind memory(argmem: readwrite) uwtable
define hidden void @ScaleFilterCols64_C(ptr noundef writeonly captures(none) %0, ptr noundef readonly captures(none) %1, i32 noundef %2, i32 noundef %3, i32 noundef %4) local_unnamed_addr #0 {
  %6 = sext i32 %3 to i64
  %7 = add nsw i32 %2, -1
  %8 = icmp sgt i32 %2, 1
  br i1 %8, label %.lr.ph, label %._crit_edge

.lr.ph:                                           ; preds = %5
  %9 = sext i32 %4 to i64
  br label %10

10:                                               ; preds = %.lr.ph, %10
  %.043 = phi ptr [ %0, %.lr.ph ], [ %46, %10 ]
  %.03942 = phi i64 [ %6, %.lr.ph ], [ %45, %10 ]
  %.04041 = phi i32 [ 0, %.lr.ph ], [ %47, %10 ]
  %11 = ashr i64 %.03942, 16
  %12 = getelementptr inbounds i8, ptr %1, i64 %11
  %13 = load i8, ptr %12, align 1
  %14 = zext i8 %13 to i32
  %15 = getelementptr i8, ptr %12, i64 1
  %16 = load i8, ptr %15, align 1
  %17 = zext i8 %16 to i32
  %18 = trunc i64 %.03942 to i32
  %19 = lshr i32 %18, 9
  %20 = and i32 %19, 127
  %21 = sub nsw i32 %17, %14
  %22 = mul nsw i32 %21, %20
  %23 = add nsw i32 %22, 64
  %24 = lshr i32 %23, 7
  %25 = trunc i32 %24 to i8
  %26 = add i8 %13, %25
  store i8 %26, ptr %.043, align 1
  %27 = add nsw i64 %.03942, %9
  %28 = ashr i64 %27, 16
  %29 = getelementptr inbounds i8, ptr %1, i64 %28
  %30 = load i8, ptr %29, align 1
  %31 = zext i8 %30 to i32
  %32 = getelementptr i8, ptr %29, i64 1
  %33 = load i8, ptr %32, align 1
  %34 = zext i8 %33 to i32
  %35 = trunc i64 %27 to i32
  %36 = lshr i32 %35, 9
  %37 = and i32 %36, 127
  %38 = sub nsw i32 %34, %31
  %39 = mul nsw i32 %38, %37
  %40 = add nsw i32 %39, 64
  %41 = lshr i32 %40, 7
  %42 = trunc i32 %41 to i8
  %43 = add i8 %30, %42
  %44 = getelementptr inbounds nuw i8, ptr %.043, i64 1
  store i8 %43, ptr %44, align 1
  %45 = add nsw i64 %27, %9
  %46 = getelementptr inbounds nuw i8, ptr %.043, i64 2
  %47 = add nuw nsw i32 %.04041, 2
  %48 = icmp slt i32 %47, %7
  br i1 %48, label %10, label %._crit_edge, !llvm.loop !14

._crit_edge:                                      ; preds = %10, %5
  %.039.lcssa = phi i64 [ %6, %5 ], [ %45, %10 ]
  %.0.lcssa = phi ptr [ %0, %5 ], [ %46, %10 ]
  %49 = and i32 %2, 1
  %.not = icmp eq i32 %49, 0
  br i1 %.not, label %67, label %50

50:                                               ; preds = %._crit_edge
  %51 = ashr i64 %.039.lcssa, 16
  %52 = getelementptr inbounds i8, ptr %1, i64 %51
  %53 = load i8, ptr %52, align 1
  %54 = zext i8 %53 to i32
  %55 = getelementptr i8, ptr %52, i64 1
  %56 = load i8, ptr %55, align 1
  %57 = zext i8 %56 to i32
  %58 = trunc i64 %.039.lcssa to i32
  %59 = lshr i32 %58, 9
  %60 = and i32 %59, 127
  %61 = sub nsw i32 %57, %54
  %62 = mul nsw i32 %61, %60
  %63 = add nsw i32 %62, 64
  %64 = lshr i32 %63, 7
  %65 = trunc i32 %64 to i8
  %66 = add i8 %53, %65
  store i8 %66, ptr %.0.lcssa, align 1
  br label %67

67:                                               ; preds = %50, %._crit_edge
  ret void
}